; Function Attrs: nounwind uwtable
define hidden ptr @SDL_GetVideoDriver_REAL(i32 noundef %0) local_unnamed_addr #0 {
  %2 = icmp sgt i32 %0, -1
  br i1 %2, label %3, label %31

3:                                                ; preds = %1
  %4 = load i32, ptr @SDL_GetNumVideoDrivers_REAL.num_drivers, align 4
  %5 = icmp sgt i32 %4, -1
  br i1 %5, label %SDL_GetNumVideoDrivers_REAL.exit, label %6

6:                                                ; preds = %3
  store i32 0, ptr @SDL_GetNumVideoDrivers_REAL.num_drivers, align 4
  br label %.preheader.i

.preheader.i:                                     ; preds = %.loopexit.i, %6
  %indvars.iv18.i = phi i64 [ 0, %6 ], [ %indvars.iv.next19.i, %.loopexit.i ]
  %7 = phi ptr [ @bootstrap, %6 ], [ %24, %.loopexit.i ]
  %.not16.i = icmp eq i64 %indvars.iv18.i, 0
  br i1 %.not16.i, label %.critedge.i, label %.lr.ph.i

.lr.ph.i:                                         ; preds = %.preheader.i
  %8 = load ptr, ptr %7, align 8
  br label %12

9:                                                ; preds = %.loopexit.i
  %10 = load i32, ptr @SDL_GetNumVideoDrivers_REAL.num_drivers, align 4
  br label %SDL_GetNumVideoDrivers_REAL.exit

11:                                               ; preds = %12
  %indvars.iv.next.i = add nuw nsw i64 %indvars.iv.i, 1
  %exitcond.not.i = icmp eq i64 %indvars.iv.next.i, %indvars.iv18.i
  br i1 %exitcond.not.i, label %.critedge.i, label %12, !llvm.loop !3

12:                                               ; preds = %11, %.lr.ph.i
  %indvars.iv.i = phi i64 [ 0, %.lr.ph.i ], [ %indvars.iv.next.i, %11 ]
  %13 = load ptr, ptr %8, align 8
  %14 = getelementptr inbounds nuw [8 x ptr], ptr @bootstrap, i64 0, i64 %indvars.iv.i
  %15 = load ptr, ptr %14, align 8
  %16 = load ptr, ptr %15, align 8
  %17 = tail call i32 @SDL_strcmp_REAL(ptr noundef %13, ptr noundef %16) #19
  %18 = icmp eq i32 %17, 0
  br i1 %18, label %.loopexit.i, label %11

.critedge.i:                                      ; preds = %11, %.preheader.i
  %19 = load ptr, ptr %7, align 8
  %20 = load i32, ptr @SDL_GetNumVideoDrivers_REAL.num_drivers, align 4
  %21 = add nsw i32 %20, 1
  store i32 %21, ptr @SDL_GetNumVideoDrivers_REAL.num_drivers, align 4
  %22 = sext i32 %20 to i64
  %23 = getelementptr inbounds [7 x ptr], ptr @deduped_bootstrap, i64 0, i64 %22
  store ptr %19, ptr %23, align 8
  br label %.loopexit.i

.loopexit.i:                                      ; preds = %12, %.critedge.i
  %indvars.iv.next19.i = add nuw nsw i64 %indvars.iv18.i, 1
  %24 = getelementptr inbounds nuw [8 x ptr], ptr @bootstrap, i64 0, i64 %indvars.iv.next19.i
  %.not.i = icmp eq i64 %indvars.iv.next19.i, 7
  br i1 %.not.i, label %9, label %.preheader.i, !llvm.loop !5

SDL_GetNumVideoDrivers_REAL.exit:                 ; preds = %3, %9
  %.012.i = phi i32 [ %10, %9 ], [ %4, %3 ]
  %25 = icmp slt i32 %0, %.012.i
  br i1 %25, label %26, label %31

26:                                               ; preds = %SDL_GetNumVideoDrivers_REAL.exit
  %27 = zext nneg i32 %0 to i64
  %28 = getelementptr inbounds nuw [7 x ptr], ptr @deduped_bootstrap, i64 0, i64 %27
  %29 = load ptr, ptr %28, align 8
  %30 = load ptr, ptr %29, align 8
  br label %33

31:                                               ; preds = %SDL_GetNumVideoDrivers_REAL.exit, %1
  %32 = tail call zeroext i1 (ptr, ...) @SDL_SetError_REAL(ptr noundef nonnull @.str.2, ptr noundef nonnull @.str.3) #19
  br label %33

33:                                               ; preds = %31, %26
  %.0 = phi ptr [ %30, %26 ], [ null, %31 ]
  ret ptr %.0
}